target datalayout = "e-m:e-p270:32:32-p271:32:32-p272:64:64-i64:64-i128:128-f80:128-n8:16:32:64-S128"
target triple = "x86_64-unknown-linux-gnu"

%class.btMatrix3x3 = type { [3 x %class.btVector3] }
%class.btVector3 = type { [4 x float] }
%class.btReducedDeformableStaticConstraint = type <{ %class.btDeformableStaticConstraint, ptr, float, %class.btVector3, %class.btVector3, %class.btVector3, %class.btMatrix3x3, float, float, float, float, [4 x i8] }>
%class.btDeformableStaticConstraint = type { %class.btDeformableContactConstraint, ptr }
%class.btDeformableContactConstraint = type { ptr, i8, ptr, %class.btVector3 }
%"struct.btSoftBody::Node" = type <{ %"struct.btSoftBody::Feature", %class.btVector3, %class.btVector3, %class.btVector3, %class.btVector3, %class.btVector3, %class.btVector3, float, float, ptr, i32, i8, [3 x i8], i32, %class.btVector3, %class.btMatrix3x3, %class.btMatrix3x3, [4 x i8] }>
%"struct.btSoftBody::Feature" = type { %"struct.btSoftBody::Element", ptr }
%"struct.btSoftBody::Element" = type { ptr }

; Function Attrs: mustprogress uwtable
define dso_local void @_ZN35btReducedDeformableStaticConstraint12applyImpulseERK9btVector3(ptr noundef nonnull align 8 dereferenceable(172) %this, ptr noundef nonnull align 4 dereferenceable(16) %impulse) unnamed_addr #6 align 2 {
entry:
  %this.addr = alloca ptr, align 8
  %impulse.addr = alloca ptr, align 8
  store ptr %this, ptr %this.addr, align 8
  store ptr %impulse, ptr %impulse.addr, align 8
  %this1 = load ptr, ptr %this.addr, align 8
  %m_rsb = getelementptr inbounds %class.btReducedDeformableStaticConstraint, ptr %this1, i32 0, i32 1
  %0 = load ptr, ptr %m_rsb, align 8
  %1 = load ptr, ptr %impulse.addr, align 8
  %m_ri = getelementptr inbounds %class.btReducedDeformableStaticConstraint, ptr %this1, i32 0, i32 3
  %m_node = getelementptr inbounds %class.btDeformableStaticConstraint, ptr %this1, i32 0, i32 1
  %2 = load ptr, ptr %m_node, align 8
  %index = getelementptr inbounds %"struct.btSoftBody::Node", ptr %2, i32 0, i32 13
  %3 = load i32, ptr %index, align 8
  %m_dt = getelementptr inbounds %class.btReducedDeformableStaticConstraint, ptr %this1, i32 0, i32 2
  %4 = load float, ptr %m_dt, align 8
  call void @_ZN23btReducedDeformableBody29internalApplyFullSpaceImpulseERK9btVector3S2_if(ptr noundef nonnull align 8 dereferenceable(3176) %0, ptr noundef nonnull align 4 dereferenceable(16) %1, ptr noundef nonnull align 4 dereferenceable(16) %m_ri, i32 noundef %3, float noundef %4)
  ret void
}