; Function Attrs: mustprogress uwtable
define dso_local void @_ZN35btReducedDeformableStaticConstraint12applyImpulseERK9btVector3(ptr noundef nonnull align 8 dereferenceable(172) %this, ptr noundef nonnull align 4 dereferenceable(16) %impulse) unnamed_addr #5 align 2 {
entry:
  %m_rsb = getelementptr inbounds i8, ptr %this, i64 48
  %0 = load ptr, ptr %m_rsb, align 8
  %m_ri = getelementptr inbounds i8, ptr %this, i64 60
  %m_node = getelementptr inbounds i8, ptr %this, i64 40
  %1 = load ptr, ptr %m_node, align 8
  %index = getelementptr inbounds i8, ptr %1, i64 136
  %2 = load i32, ptr %index, align 8
  %m_dt = getelementptr inbounds i8, ptr %this, i64 56
  %3 = load float, ptr %m_dt, align 8
  tail call void @_ZN23btReducedDeformableBody29internalApplyFullSpaceImpulseERK9btVector3S2_if(ptr noundef nonnull align 8 dereferenceable(3176) %0, ptr noundef nonnull align 4 dereferenceable(16) %impulse, ptr noundef nonnull align 4 dereferenceable(16) %m_ri, i32 noundef %2, float noundef %3)
  ret void
}